; Function Attrs: nounwind uwtable
define ptr @Wlc_ReadSmt(ptr noundef %0, i32 noundef %1, i32 noundef %2) local_unnamed_addr #0 {
  %4 = tail call noalias ptr @fopen(ptr noundef readonly %0, ptr noundef nonnull @.str.76)
  %5 = icmp eq ptr %4, null
  br i1 %5, label %Smt_PrsLoadFile.exit.thread, label %6

Smt_PrsLoadFile.exit.thread:                      ; preds = %3
  %puts.i = tail call i32 @puts(ptr nonnull dereferenceable(1) @str.1)
  br label %23

6:                                                ; preds = %3
  %7 = tail call i32 @fseek(ptr noundef nonnull %4, i64 noundef 0, i32 noundef 2)
  %8 = tail call i64 @ftell(ptr noundef nonnull %4)
  tail call void @rewind(ptr noundef nonnull %4)
  %9 = shl i64 %8, 32
  %sext.i = add i64 %9, 68719476736
  %10 = ashr exact i64 %sext.i, 32
  %11 = tail call noalias ptr @malloc(i64 noundef %10) #22
  store i8 10, ptr %11, align 1, !tbaa !15
  %12 = getelementptr inbounds nuw i8, ptr %11, i64 1
  %13 = ashr exact i64 %9, 32
  %14 = tail call i64 @fread(ptr noundef nonnull %12, i64 noundef %13, i64 noundef 1, ptr noundef nonnull %4)
  %15 = tail call i32 @fclose(ptr noundef nonnull %4)
  %sext21.i = add i64 %9, 4294967296
  %16 = ashr exact i64 %sext21.i, 32
  %17 = getelementptr inbounds i8, ptr %11, i64 %16
  store i8 10, ptr %17, align 1, !tbaa !15
  %sext22.i = add i64 %9, 8589934592
  %18 = ashr exact i64 %sext22.i, 32
  %19 = getelementptr inbounds i8, ptr %11, i64 %18
  store i8 0, ptr %19, align 1, !tbaa !15
  %20 = getelementptr inbounds i8, ptr %11, i64 %13
  %21 = getelementptr inbounds nuw i8, ptr %20, i64 2
  %22 = tail call ptr @Wlc_ReadSmtBuffer(ptr noundef %0, ptr noundef nonnull %11, ptr noundef nonnull %21, i32 noundef %1, i32 noundef %2)
  tail call void @free(ptr noundef %11) #20
  br label %23

23:                                               ; preds = %Smt_PrsLoadFile.exit.thread, %6
  %.0 = phi ptr [ %22, %6 ], [ null, %Smt_PrsLoadFile.exit.thread ]
  ret ptr %.0
}